Certificate:
    Data:
        Version: 3 (0x2)
        Serial Number: 1928911 (0x1d6ecf)
    Signature Algorithm: sha1WithRSAEncryption
        Issuer: C=DE, ST=Bayern, L=Gunzenhausen, O=HideME, CN=HideME CA/emailAddress=feedback@hideme.ru
        Validity
            Not Before: Jan 14 00:14:05 2016 GMT
            Not After : Jan 15 00:14:05 2016 GMT
        Subject: C=DE, ST=Bayern, L=Gunzenhausen, O=HideME, CN=hideme_8142037/emailAddress=feedback@hideme.ru
        Subject Public Key Info:
            Public Key Algorithm: rsaEncryption
                Public-Key: (2048 bit)
                Modulus:
                    00:b2:84:cb:c0:65:e9:ca:16:66:42:ca:a3:dc:b2:
                    f7:dc:56:b7:27:b0:7b:1f:f2:c0:10:e3:c9:15:f0:
                    2e:ea:05:f4:d3:3f:26:0f:5a:41:f8:b9:4a:15:b6:
                    25:b9:94:28:7c:bc:5f:98:fc:ba:04:c5:49:d0:40:
                    8e:45:94:86:fd:1d:25:6c:d8:3e:c6:00:ed:df:47:
                    62:61:d1:74:fd:a6:ef:60:85:62:3e:29:a9:ee:98:
                    3c:6d:fe:06:b2:b8:54:60:6c:53:b9:8f:16:9c:1a:
                    d7:c5:ae:39:bb:be:7b:20:02:2d:db:1d:c3:6c:93:
                    7b:69:7e:5d:31:3f:01:6a:a9:46:8f:1a:ea:69:b3:
                    0d:b3:38:a3:94:53:61:44:e8:ea:c5:92:a5:ad:fa:
                    b6:d7:93:ce:e1:4a:fe:52:c0:68:57:f0:a1:ac:db:
                    fd:db:9b:ac:d8:bb:05:00:0b:09:ea:c2:22:2c:70:
                    da:97:84:3c:eb:ba:63:25:c1:df:6e:b3:82:ec:53:
                    2e:13:01:b9:9f:67:0f:f8:62:a4:87:a5:06:ad:d5:
                    5e:60:42:f3:54:b6:29:fd:91:8b:68:85:5f:7a:6b:
                    c7:2b:43:7a:f1:c0:b9:73:b9:8b:67:07:9f:49:fd:
                    20:42:00:a3:ad:18:0d:60:51:81:95:b9:c4:e6:69:
                    a5:1b
                Exponent: 65537 (0x10001)
        X509v3 extensions:
            X509v3 Basic Constraints: 
                CA:FALSE
            Netscape Comment: 
                Easy-RSA Generated Certificate
            X509v3 Subject Key Identifier: 
                4C:C3:49:AA:2C:46:13:26:50:CF:6D:D2:5A:5C:87:89:96:AF:B7:2D
            X509v3 Authority Key Identifier: 
                keyid:73:C2:0D:6F:52:46:E4:53:60:2C:12:FA:FA:62:42:D2:44:50:CD:AB
                DirName:/C=DE/ST=Bayern/L=Gunzenhausen/O=HideME/CN=HideME CA/emailAddress=feedback@hideme.ru
                serial:E3:FD:53:2C:76:2F:3C:CE

            X509v3 Extended Key Usage: 
                TLS Web Client Authentication
            X509v3 Key Usage: 
                Digital Signature
    Signature Algorithm: sha1WithRSAEncryption
         5d:ce:8e:60:2d:b2:cf:31:4c:e8:1d:be:4a:1a:7f:5c:b7:d8:
         c8:27:72:60:8d:21:6d:a3:48:e0:ab:21:eb:fd:7b:d4:43:42:
         87:fb:bf:14:79:50:5f:5f:59:e7:2f:73:b6:97:fb:65:0e:bb:
         93:7a:e0:8c:ed:74:6b:52:0c:06:07:d2:31:4a:56:23:5f:2a:
         da:79:fb:bc:66:38:c2:2a:6a:c8:9c:b2:7c:33:54:75:12:71:
         6b:a5:04:85:44:c1:41:b4:29:e4:e8:97:35:ff:fd:42:f9:3b:
         7e:57:af:d7:e8:ba:1f:77:c2:ff:8f:06:d8:ef:b3:51:51:b6:
         cf:b3:b5:e6:67:c4:fe:4c:73:17:14:c7:9d:1e:ed:77:21:1e:
         8e:a5:cc:7d:be:e7:88:b0:d0:80:74:41:9c:a1:f0:92:8f:f8:
         e5:e2:f1:ae:52:da:55:23:d9:0a:58:85:05:98:56:31:3f:c7:
         06:88:af:d5:e4:31:16:f2:87:7b:f4:78:06:08:b0:31:c7:95:
         ae:69:a0:56:7a:7d:2d:2c:98:15:ef:9a:c1:e7:eb:ca:22:78:
         dd:85:05:be:d5:7d:e6:91:2b:64:17:7c:93:9a:96:1d:ca:20:
         1f:d3:62:84:ff:25:74:57:c0:d0:05:34:a0:aa:e6:8b:7c:c0:
         d5:fc:c3:8f
-----BEGIN CERTIFICATE-----
MIIEsTCCA5mgAwIBAgIDHW7PMA0GCSqGSIb3DQEBBQUAMH0xCzAJBgNVBAYTAkRF
MQ8wDQYDVQQIEwZCYXllcm4xFTATBgNVBAcTDEd1bnplbmhhdXNlbjEPMA0GA1UE
ChMGSGlkZU1FMRIwEAYDVQQDEwlIaWRlTUUgQ0ExITAfBgkqhkiG9w0BCQEWEmZl
ZWRiYWNrQGhpZGVtZS5ydTAeFw0xNjAxMTQwMDE0MDVaFw0xNjAxMTUwMDE0MDVa
MIGCMQswCQYDVQQGEwJERTEPMA0GA1UECBMGQmF5ZXJuMRUwEwYDVQQHEwxHdW56
ZW5oYXVzZW4xDzANBgNVBAoTBkhpZGVNRTEXMBUGA1UEAxQOaGlkZW1lXzgxNDIw
MzcxITAfBgkqhkiG9w0BCQEWEmZlZWRiYWNrQGhpZGVtZS5ydTCCASIwDQYJKoZI
hvcNAQEBBQADggEPADCCAQoCggEBALKEy8Bl6coWZkLKo9yy99xWtyewex/ywBDj
yRXwLuoF9NM/Jg9aQfi5ShW2JbmUKHy8X5j8ugTFSdBAjkWUhv0dJWzYPsYA7d9H
YmHRdP2m72CFYj4pqe6YPG3+BrK4VGBsU7mPFpwa18WuObu+eyACLdsdw2yTe2l+
XTE/AWqpRo8a6mmzDbM4o5RTYUTo6sWSpa36tteTzuFK/lLAaFfwoazb/dubrNi7
BQALCerCIixw2peEPOu6YyXB326zguxTLhMBuZ9nD/hipIelBq3VXmBC81S2Kf2R
i2iFX3prxytDevHAuXO5i2cHn0n9IEIAo60YDWBRgZW5xOZppRsCAwEAAaOCATIw
ggEuMAkGA1UdEwQCMAAwLQYJYIZIAYb4QgENBCAWHkVhc3ktUlNBIEdlbmVyYXRl
ZCBDZXJ0aWZpY2F0ZTAdBgNVHQ4EFgQUTMNJqixGEyZQz23SWlyHiZavty0wgbAG
A1UdIwSBqDCBpYAUc8INb1JG5FNgLBL6+mJC0kRQzauhgYGkfzB9MQswCQYDVQQG
EwJERTEPMA0GA1UECBMGQmF5ZXJuMRUwEwYDVQQHEwxHdW56ZW5oYXVzZW4xDzAN
BgNVBAoTBkhpZGVNRTESMBAGA1UEAxMJSGlkZU1FIENBMSEwHwYJKoZIhvcNAQkB
FhJmZWVkYmFja0BoaWRlbWUucnWCCQDj/VMsdi88zjATBgNVHSUEDDAKBggrBgEF
BQcDAjALBgNVHQ8EBAMCB4AwDQYJKoZIhvcNAQEFBQADggEBAF3OjmAtss8xTOgd
vkoaf1y32MgncmCNIW2jSOCrIev9e9RDQof7vxR5UF9fWecvc7aX+2UOu5N64Izt
dGtSDAYH0jFKViNfKtp5+7xmOMIqasicsnwzVHUScWulBIVEwUG0KeTolzX//UL5
O35Xr9fouh93wv+PBtjvs1FRts+zteZnxP5McxcUx50e7XchHo6lzH2+54iw0IB0
QZyh8JKP+OXi8a5S2lUj2QpYhQWYVjE/xwaIr9XkMRbyh3v0eAYIsDHHla5poFZ6
fS0smBXvmsHn68oieN2FBb7VfeaRK2QXfJOalh3KIB/TYoT/JXRXwNAFNKCq5ot8
wNX8w48=
-----END CERTIFICATE-----
